; Function Attrs: mustprogress uwtable
define void @_ZNK19OpenColorIO_v2_5dev6Config12getProcessorERKSt10shared_ptrIKNS_9TransformEENS_18TransformDirectionE(ptr dead_on_unwind noalias writable writeonly sret(%"class.std::shared_ptr.147") align 8 captures(none) %0, ptr noundef nonnull align 8 dereferenceable(8) %1, ptr noundef nonnull align 8 dereferenceable(16) %2, i32 noundef %3) local_unnamed_addr #4 align 2 personality ptr @__gxx_personality_v0 {
  %5 = alloca %"class.std::shared_ptr.103", align 8
  call void @llvm.lifetime.start.p0(i64 16, ptr nonnull %5) #34
  tail call void @llvm.experimental.noalias.scope.decl(metadata !722)
  %6 = load ptr, ptr %1, align 8, !tbaa !34, !noalias !722
  %7 = getelementptr inbounds nuw i8, ptr %6, i64 56
  %8 = load ptr, ptr %7, align 8, !tbaa !235, !noalias !722
  store ptr %8, ptr %5, align 8, !tbaa !379, !alias.scope !722
  %9 = getelementptr inbounds nuw i8, ptr %5, i64 8
  %10 = getelementptr inbounds nuw i8, ptr %6, i64 64
  %11 = load ptr, ptr %10, align 8, !tbaa !11, !noalias !722
  store ptr %11, ptr %9, align 8, !tbaa !11, !alias.scope !722
  %.not.i.i.i.i = icmp eq ptr %11, null
  br i1 %.not.i.i.i.i, label %_ZNK19OpenColorIO_v2_5dev6Config17getCurrentContextEv.exit, label %12

12:                                               ; preds = %4
  %13 = getelementptr inbounds nuw i8, ptr %11, i64 8
  %14 = load i8, ptr @__libc_single_threaded, align 1, !tbaa !19, !noalias !722
  %.not.i.i.i.i.i = icmp eq i8 %14, 0
  br i1 %.not.i.i.i.i.i, label %18, label %15

15:                                               ; preds = %12
  %16 = load i32, ptr %13, align 4, !tbaa !20, !noalias !722
  %17 = add nsw i32 %16, 1
  store i32 %17, ptr %13, align 4, !tbaa !20, !noalias !722
  br label %_ZNK19OpenColorIO_v2_5dev6Config17getCurrentContextEv.exit

18:                                               ; preds = %12
  %19 = atomicrmw volatile add ptr %13, i32 1 acq_rel, align 4, !noalias !722
  br label %_ZNK19OpenColorIO_v2_5dev6Config17getCurrentContextEv.exit

_ZNK19OpenColorIO_v2_5dev6Config17getCurrentContextEv.exit: ; preds = %4, %15, %18
  invoke void @_ZNK19OpenColorIO_v2_5dev6Config12getProcessorERKSt10shared_ptrIKNS_7ContextEERKS1_IKNS_9TransformEENS_18TransformDirectionE(ptr dead_on_unwind writable sret(%"class.std::shared_ptr.147") align 8 %0, ptr noundef nonnull align 8 dereferenceable(8) %1, ptr noundef nonnull align 8 dereferenceable(16) %5, ptr noundef nonnull align 8 dereferenceable(16) %2, i32 noundef %3)
          to label %20 unwind label %43

20:                                               ; preds = %_ZNK19OpenColorIO_v2_5dev6Config17getCurrentContextEv.exit
  %21 = load ptr, ptr %9, align 8, !tbaa !11
  %.not.i.i = icmp eq ptr %21, null
  br i1 %.not.i.i, label %_ZNSt12__shared_ptrIKN19OpenColorIO_v2_5dev7ContextELN9__gnu_cxx12_Lock_policyE2EED2Ev.exit, label %22

22:                                               ; preds = %20
  %23 = getelementptr inbounds nuw i8, ptr %21, i64 8
  %24 = load atomic i64, ptr %23 acquire, align 8
  %25 = icmp eq i64 %24, 4294967297
  %26 = trunc i64 %24 to i32
  br i1 %25, label %27, label %35

27:                                               ; preds = %22
  store i32 0, ptr %23, align 8, !tbaa !13
  %28 = getelementptr inbounds nuw i8, ptr %21, i64 12
  store i32 0, ptr %28, align 4, !tbaa !16
  %29 = load ptr, ptr %21, align 8, !tbaa !17
  %30 = getelementptr inbounds nuw i8, ptr %29, i64 16
  %31 = load ptr, ptr %30, align 8
  call void %31(ptr noundef nonnull align 8 dereferenceable(16) %21) #34
  %32 = load ptr, ptr %21, align 8, !tbaa !17
  %33 = getelementptr inbounds nuw i8, ptr %32, i64 24
  %34 = load ptr, ptr %33, align 8
  call void %34(ptr noundef nonnull align 8 dereferenceable(16) %21) #34
  br label %_ZNSt12__shared_ptrIKN19OpenColorIO_v2_5dev7ContextELN9__gnu_cxx12_Lock_policyE2EED2Ev.exit

35:                                               ; preds = %22
  %36 = load i8, ptr @__libc_single_threaded, align 1, !tbaa !19
  %.not.i.i.i = icmp eq i8 %36, 0
  br i1 %.not.i.i.i, label %39, label %37

37:                                               ; preds = %35
  %38 = add nsw i32 %26, -1
  store i32 %38, ptr %23, align 4, !tbaa !20
  br label %_ZN9__gnu_cxx27__exchange_and_add_dispatchEPii.exit.i.i.i

39:                                               ; preds = %35
  %40 = atomicrmw volatile add ptr %23, i32 -1 acq_rel, align 4
  br label %_ZN9__gnu_cxx27__exchange_and_add_dispatchEPii.exit.i.i.i

_ZN9__gnu_cxx27__exchange_and_add_dispatchEPii.exit.i.i.i: ; preds = %39, %37
  %.0.i.i.i.i = phi i32 [ %26, %37 ], [ %40, %39 ]
  %41 = icmp eq i32 %.0.i.i.i.i, 1
  br i1 %41, label %42, label %_ZNSt12__shared_ptrIKN19OpenColorIO_v2_5dev7ContextELN9__gnu_cxx12_Lock_policyE2EED2Ev.exit, !prof !21

42:                                               ; preds = %_ZN9__gnu_cxx27__exchange_and_add_dispatchEPii.exit.i.i.i
  call void @_ZNSt16_Sp_counted_baseILN9__gnu_cxx12_Lock_policyE2EE24_M_release_last_use_coldEv(ptr noundef nonnull align 8 dereferenceable(16) %21) #34
  br label %_ZNSt12__shared_ptrIKN19OpenColorIO_v2_5dev7ContextELN9__gnu_cxx12_Lock_policyE2EED2Ev.exit

_ZNSt12__shared_ptrIKN19OpenColorIO_v2_5dev7ContextELN9__gnu_cxx12_Lock_policyE2EED2Ev.exit: ; preds = %20, %27, %_ZN9__gnu_cxx27__exchange_and_add_dispatchEPii.exit.i.i.i, %42
  call void @llvm.lifetime.end.p0(i64 16, ptr nonnull %5) #34
  ret void

43:                                               ; preds = %_ZNK19OpenColorIO_v2_5dev6Config17getCurrentContextEv.exit
  %44 = landingpad { ptr, i32 }
          cleanup
  call void @_ZNSt12__shared_ptrIKN19OpenColorIO_v2_5dev7ContextELN9__gnu_cxx12_Lock_policyE2EED2Ev(ptr noundef nonnull align 8 dereferenceable(16) %5) #34
  call void @llvm.lifetime.end.p0(i64 16, ptr nonnull %5) #34
  resume { ptr, i32 } %44
}